target datalayout = "e-m:e-p270:32:32-p271:32:32-p272:64:64-i64:64-i128:128-f80:128-n8:16:32:64-S128"
target triple = "x86_64-pc-linux-gnu"

%struct.wtap = type { ptr, ptr, i8, i32, i32, ptr, ptr, ptr, i32, ptr, ptr, ptr, ptr, ptr, ptr, ptr, ptr, ptr, ptr, i32, i32, ptr, ptr, ptr, ptr }

; Function Attrs: null_pointer_is_valid sspstrong uwtable
define internal zeroext i1 @netscreen_seek_read(ptr noundef %0, i64 noundef %1, ptr noundef %2, ptr noundef %3, ptr noundef %4) #0 {
  %6 = alloca i1, align 1
  %7 = alloca ptr, align 8
  %8 = alloca i64, align 8
  %9 = alloca ptr, align 8
  %10 = alloca ptr, align 8
  %11 = alloca ptr, align 8
  %12 = alloca [128 x i8], align 16
  %13 = alloca i32, align 4
  store ptr %0, ptr %7, align 8
  store i64 %1, ptr %8, align 8
  store ptr %2, ptr %9, align 8
  store ptr %3, ptr %10, align 8
  store ptr %4, ptr %11, align 8
  call void @llvm.lifetime.start.p0(i64 128, ptr %12) #9
  %14 = load ptr, ptr %7, align 8
  %15 = getelementptr inbounds nuw %struct.wtap, ptr %14, i32 0, i32 1
  %16 = load ptr, ptr %15, align 8
  %17 = load i64, ptr %8, align 8
  %18 = load ptr, ptr %10, align 8
  %19 = call i64 @file_seek(ptr noundef %16, i64 noundef %17, i32 noundef 0, ptr noundef %18)
  %20 = icmp eq i64 %19, -1
  br i1 %20, label %21, label %22

21:                                               ; preds = %5
  store i1 false, ptr %6, align 1
  store i32 1, ptr %13, align 4
  br label %51

22:                                               ; preds = %5
  %23 = getelementptr inbounds [128 x i8], ptr %12, i64 0, i64 0
  %24 = load ptr, ptr %7, align 8
  %25 = getelementptr inbounds nuw %struct.wtap, ptr %24, i32 0, i32 1
  %26 = load ptr, ptr %25, align 8
  %27 = call ptr @file_gets(ptr noundef %23, i32 noundef 128, ptr noundef %26)
  %28 = icmp eq ptr %27, null
  br i1 %28, label %29, label %42

29:                                               ; preds = %22
  %30 = load ptr, ptr %7, align 8
  %31 = getelementptr inbounds nuw %struct.wtap, ptr %30, i32 0, i32 1
  %32 = load ptr, ptr %31, align 8
  %33 = load ptr, ptr %11, align 8
  %34 = call i32 @file_error(ptr noundef %32, ptr noundef %33)
  %35 = load ptr, ptr %10, align 8
  store i32 %34, ptr %35, align 4
  %36 = load ptr, ptr %10, align 8
  %37 = load i32, ptr %36, align 4
  %38 = icmp eq i32 %37, 0
  br i1 %38, label %39, label %41

39:                                               ; preds = %29
  %40 = load ptr, ptr %10, align 8
  store i32 -12, ptr %40, align 4
  br label %41

41:                                               ; preds = %39, %29
  store i1 false, ptr %6, align 1
  store i32 1, ptr %13, align 4
  br label %51

42:                                               ; preds = %22
  %43 = load ptr, ptr %7, align 8
  %44 = getelementptr inbounds nuw %struct.wtap, ptr %43, i32 0, i32 1
  %45 = load ptr, ptr %44, align 8
  %46 = load ptr, ptr %9, align 8
  %47 = getelementptr inbounds [128 x i8], ptr %12, i64 0, i64 0
  %48 = load ptr, ptr %10, align 8
  %49 = load ptr, ptr %11, align 8
  %50 = call zeroext i1 @parse_netscreen_packet(ptr noundef %45, ptr noundef %46, ptr noundef %47, ptr noundef %48, ptr noundef %49)
  store i1 %50, ptr %6, align 1
  store i32 1, ptr %13, align 4
  br label %51

51:                                               ; preds = %42, %41, %21
  call void @llvm.lifetime.end.p0(i64 128, ptr %12) #9
  %52 = load i1, ptr %6, align 1
  ret i1 %52
}